; Function Attrs: mustprogress nounwind uwtable
define internal fastcc void @_ZN7testing19exceptions_internal19ExceptionSafetyTestINS_12_GLOBAL__N_113ExampleStructEED2Ev(ptr noundef nonnull align 8 dereferenceable(88) %this) unnamed_addr #7 align 2 personality ptr @__gxx_personality_v0 {
entry:
  %contracts_ = getelementptr inbounds i8, ptr %this, i64 64
  %0 = load ptr, ptr %contracts_, align 8
  %_M_finish.i = getelementptr inbounds i8, ptr %this, i64 72
  %1 = load ptr, ptr %_M_finish.i, align 8
  %cmp.not3.i.i.i.i = icmp eq ptr %0, %1
  br i1 %cmp.not3.i.i.i.i, label %invoke.cont.i, label %for.body.i.i.i.i

for.body.i.i.i.i:                                 ; preds = %entry, %_ZSt8_DestroyISt8functionIFN7testing15AssertionResultEPNS1_12_GLOBAL__N_113ExampleStructEEEEvPT_.exit.i.i.i.i
  %__first.addr.04.i.i.i.i = phi ptr [ %incdec.ptr.i.i.i.i, %_ZSt8_DestroyISt8functionIFN7testing15AssertionResultEPNS1_12_GLOBAL__N_113ExampleStructEEEEvPT_.exit.i.i.i.i ], [ %0, %entry ]
  %_M_manager.i.i.i.i.i.i.i = getelementptr inbounds i8, ptr %__first.addr.04.i.i.i.i, i64 16
  %2 = load ptr, ptr %_M_manager.i.i.i.i.i.i.i, align 8
  %tobool.not.i.i.i.i.i.i.i = icmp eq ptr %2, null
  br i1 %tobool.not.i.i.i.i.i.i.i, label %_ZSt8_DestroyISt8functionIFN7testing15AssertionResultEPNS1_12_GLOBAL__N_113ExampleStructEEEEvPT_.exit.i.i.i.i, label %if.then.i.i.i.i.i.i.i

if.then.i.i.i.i.i.i.i:                            ; preds = %for.body.i.i.i.i
  %call.i.i.i.i.i.i.i = invoke noundef zeroext i1 %2(ptr noundef nonnull align 8 dereferenceable(16) %__first.addr.04.i.i.i.i, ptr noundef nonnull align 8 dereferenceable(16) %__first.addr.04.i.i.i.i, i32 noundef 3)
          to label %_ZSt8_DestroyISt8functionIFN7testing15AssertionResultEPNS1_12_GLOBAL__N_113ExampleStructEEEEvPT_.exit.i.i.i.i unwind label %terminate.lpad.i.i.i.i.i.i.i

terminate.lpad.i.i.i.i.i.i.i:                     ; preds = %if.then.i.i.i.i.i.i.i
  %3 = landingpad { ptr, i32 }
          catch ptr null
  %4 = extractvalue { ptr, i32 } %3, 0
  tail call void @__clang_call_terminate(ptr %4) #26
  unreachable

_ZSt8_DestroyISt8functionIFN7testing15AssertionResultEPNS1_12_GLOBAL__N_113ExampleStructEEEEvPT_.exit.i.i.i.i: ; preds = %if.then.i.i.i.i.i.i.i, %for.body.i.i.i.i
  %incdec.ptr.i.i.i.i = getelementptr inbounds i8, ptr %__first.addr.04.i.i.i.i, i64 32
  %cmp.not.i.i.i.i = icmp eq ptr %incdec.ptr.i.i.i.i, %1
  br i1 %cmp.not.i.i.i.i, label %invoke.contthread-pre-split.i, label %for.body.i.i.i.i, !llvm.loop !250

invoke.contthread-pre-split.i:                    ; preds = %_ZSt8_DestroyISt8functionIFN7testing15AssertionResultEPNS1_12_GLOBAL__N_113ExampleStructEEEEvPT_.exit.i.i.i.i
  %this.val.pr.i = load ptr, ptr %contracts_, align 8
  br label %invoke.cont.i

invoke.cont.i:                                    ; preds = %invoke.contthread-pre-split.i, %entry
  %this.val.i = phi ptr [ %this.val.pr.i, %invoke.contthread-pre-split.i ], [ %0, %entry ]
  %tobool.not.i.i.i = icmp eq ptr %this.val.i, null
  br i1 %tobool.not.i.i.i, label %_ZNSt6vectorISt8functionIFN7testing15AssertionResultEPNS1_12_GLOBAL__N_113ExampleStructEEESaIS7_EED2Ev.exit, label %if.then.i.i.i

if.then.i.i.i:                                    ; preds = %invoke.cont.i
  tail call void @_ZdlPv(ptr noundef nonnull %this.val.i) #24
  br label %_ZNSt6vectorISt8functionIFN7testing15AssertionResultEPNS1_12_GLOBAL__N_113ExampleStructEEESaIS7_EED2Ev.exit

_ZNSt6vectorISt8functionIFN7testing15AssertionResultEPNS1_12_GLOBAL__N_113ExampleStructEEESaIS7_EED2Ev.exit: ; preds = %invoke.cont.i, %if.then.i.i.i
  %_M_manager.i.i = getelementptr inbounds i8, ptr %this, i64 48
  %5 = load ptr, ptr %_M_manager.i.i, align 8
  %tobool.not.i.i = icmp eq ptr %5, null
  br i1 %tobool.not.i.i, label %_ZNSt8functionIFvPN7testing12_GLOBAL__N_113ExampleStructEEED2Ev.exit, label %if.then.i.i

if.then.i.i:                                      ; preds = %_ZNSt6vectorISt8functionIFN7testing15AssertionResultEPNS1_12_GLOBAL__N_113ExampleStructEEESaIS7_EED2Ev.exit
  %operation_ = getelementptr inbounds i8, ptr %this, i64 32
  %call.i.i = invoke noundef zeroext i1 %5(ptr noundef nonnull align 8 dereferenceable(16) %operation_, ptr noundef nonnull align 8 dereferenceable(16) %operation_, i32 noundef 3)
          to label %_ZNSt8functionIFvPN7testing12_GLOBAL__N_113ExampleStructEEED2Ev.exit unwind label %terminate.lpad.i.i

terminate.lpad.i.i:                               ; preds = %if.then.i.i
  %6 = landingpad { ptr, i32 }
          catch ptr null
  %7 = extractvalue { ptr, i32 } %6, 0
  tail call void @__clang_call_terminate(ptr %7) #26
  unreachable

_ZNSt8functionIFvPN7testing12_GLOBAL__N_113ExampleStructEEED2Ev.exit: ; preds = %_ZNSt6vectorISt8functionIFN7testing15AssertionResultEPNS1_12_GLOBAL__N_113ExampleStructEEESaIS7_EED2Ev.exit, %if.then.i.i
  %_M_manager.i.i1 = getelementptr inbounds i8, ptr %this, i64 16
  %8 = load ptr, ptr %_M_manager.i.i1, align 8
  %tobool.not.i.i2 = icmp eq ptr %8, null
  br i1 %tobool.not.i.i2, label %_ZNSt8functionIFSt10unique_ptrIN7testing12_GLOBAL__N_113ExampleStructESt14default_deleteIS3_EEvEED2Ev.exit, label %if.then.i.i3

if.then.i.i3:                                     ; preds = %_ZNSt8functionIFvPN7testing12_GLOBAL__N_113ExampleStructEEED2Ev.exit
  %call.i.i4 = invoke noundef zeroext i1 %8(ptr noundef nonnull align 8 dereferenceable(16) %this, ptr noundef nonnull align 8 dereferenceable(16) %this, i32 noundef 3)
          to label %_ZNSt8functionIFSt10unique_ptrIN7testing12_GLOBAL__N_113ExampleStructESt14default_deleteIS3_EEvEED2Ev.exit unwind label %terminate.lpad.i.i5

terminate.lpad.i.i5:                              ; preds = %if.then.i.i3
  %9 = landingpad { ptr, i32 }
          catch ptr null
  %10 = extractvalue { ptr, i32 } %9, 0
  tail call void @__clang_call_terminate(ptr %10) #26
  unreachable

_ZNSt8functionIFSt10unique_ptrIN7testing12_GLOBAL__N_113ExampleStructESt14default_deleteIS3_EEvEED2Ev.exit: ; preds = %_ZNSt8functionIFvPN7testing12_GLOBAL__N_113ExampleStructEEED2Ev.exit, %if.then.i.i3
  ret void
}